target datalayout = "e-m:e-p270:32:32-p271:32:32-p272:64:64-i64:64-i128:128-f80:128-n8:16:32:64-S128"
target triple = "x86_64-pc-linux-gnu"

%struct.AVFilterContext = type { ptr, ptr, ptr, ptr, ptr, i32, ptr, ptr, i32, ptr, ptr, i32, i32, ptr, ptr, ptr, ptr, i32, ptr, i32, i32 }
%struct.MidEqualizerContext = type { ptr, [2 x [4 x i32]], [2 x [4 x i32]], i32, i32, i32, [2 x ptr], ptr, %struct.FFFrameSync, ptr }
%struct.FFFrameSync = type { ptr, ptr, i32, %struct.AVRational, i64, ptr, ptr, i32, i32, i8, i8, ptr, i32, i32, i32, i32 }
%struct.AVRational = type { i32, i32 }
%struct.AVFilterLink = type { ptr, ptr, ptr, ptr, i32, i32, i32, i32, %struct.AVRational, i32, i32, i32, %struct.AVChannelLayout, %struct.AVRational, ptr, i32, %struct.AVFilterFormatsConfig, %struct.AVFilterFormatsConfig }
%struct.AVChannelLayout = type { i32, i32, %union.anon.1, ptr }
%union.anon.1 = type { i64 }
%struct.AVFilterFormatsConfig = type { ptr, ptr, ptr, ptr, ptr }
%struct.AVFrame = type { [8 x ptr], [8 x i32], ptr, i32, i32, i32, i32, i32, %struct.AVRational, i64, i64, %struct.AVRational, i32, ptr, i32, i32, [8 x ptr], ptr, i32, ptr, i32, i32, i32, i32, i32, i32, i32, i64, ptr, i32, ptr, ptr, i64, i64, i64, i64, ptr, %struct.AVChannelLayout, i64 }

; Function Attrs: nounwind uwtable
define internal i32 @process_frame(ptr noundef %0) #1 {
  %2 = alloca i32, align 4
  %3 = alloca ptr, align 8
  %4 = alloca ptr, align 8
  %5 = alloca ptr, align 8
  %6 = alloca ptr, align 8
  %7 = alloca ptr, align 8
  %8 = alloca ptr, align 8
  %9 = alloca ptr, align 8
  %10 = alloca i32, align 4
  %11 = alloca i32, align 4
  %12 = alloca i32, align 4
  store ptr %0, ptr %3, align 8, !tbaa !93
  call void @llvm.lifetime.start.p0(i64 8, ptr %4) #10
  %13 = load ptr, ptr %3, align 8, !tbaa !93
  %14 = getelementptr inbounds nuw %struct.FFFrameSync, ptr %13, i32 0, i32 1
  %15 = load ptr, ptr %14, align 8, !tbaa !95
  store ptr %15, ptr %4, align 8, !tbaa !4
  call void @llvm.lifetime.start.p0(i64 8, ptr %5) #10
  %16 = load ptr, ptr %3, align 8, !tbaa !93
  %17 = getelementptr inbounds nuw %struct.FFFrameSync, ptr %16, i32 0, i32 6
  %18 = load ptr, ptr %17, align 8, !tbaa !96
  store ptr %18, ptr %5, align 8, !tbaa !22
  call void @llvm.lifetime.start.p0(i64 8, ptr %6) #10
  %19 = load ptr, ptr %4, align 8, !tbaa !4
  %20 = getelementptr inbounds nuw %struct.AVFilterContext, ptr %19, i32 0, i32 7
  %21 = load ptr, ptr %20, align 8, !tbaa !97
  %22 = getelementptr inbounds ptr, ptr %21, i64 0
  %23 = load ptr, ptr %22, align 8, !tbaa !24
  store ptr %23, ptr %6, align 8, !tbaa !24
  call void @llvm.lifetime.start.p0(i64 8, ptr %7) #10
  call void @llvm.lifetime.start.p0(i64 8, ptr %8) #10
  call void @llvm.lifetime.start.p0(i64 8, ptr %9) #10
  call void @llvm.lifetime.start.p0(i64 4, ptr %10) #10
  %24 = load ptr, ptr %5, align 8, !tbaa !22
  %25 = getelementptr inbounds nuw %struct.MidEqualizerContext, ptr %24, i32 0, i32 8
  %26 = call i32 @ff_framesync_get_frame(ptr noundef %25, i32 noundef 0, ptr noundef %8, i32 noundef 0)
  store i32 %26, ptr %10, align 4, !tbaa !45
  %27 = icmp slt i32 %26, 0
  br i1 %27, label %33, label %28

28:                                               ; preds = %1
  %29 = load ptr, ptr %5, align 8, !tbaa !22
  %30 = getelementptr inbounds nuw %struct.MidEqualizerContext, ptr %29, i32 0, i32 8
  %31 = call i32 @ff_framesync_get_frame(ptr noundef %30, i32 noundef 1, ptr noundef %9, i32 noundef 0)
  store i32 %31, ptr %10, align 4, !tbaa !45
  %32 = icmp slt i32 %31, 0
  br i1 %32, label %33, label %35

33:                                               ; preds = %28, %1
  %34 = load i32, ptr %10, align 4, !tbaa !45
  store i32 %34, ptr %2, align 4
  store i32 1, ptr %11, align 4
  br label %234

35:                                               ; preds = %28
  %36 = load ptr, ptr %4, align 8, !tbaa !4
  %37 = getelementptr inbounds nuw %struct.AVFilterContext, ptr %36, i32 0, i32 17
  %38 = load i32, ptr %37, align 8, !tbaa !98
  %39 = icmp ne i32 %38, 0
  br i1 %39, label %40, label %47

40:                                               ; preds = %35
  %41 = load ptr, ptr %8, align 8, !tbaa !99
  %42 = call ptr @av_frame_clone(ptr noundef %41)
  store ptr %42, ptr %7, align 8, !tbaa !99
  %43 = load ptr, ptr %7, align 8, !tbaa !99
  %44 = icmp ne ptr %43, null
  br i1 %44, label %46, label %45

45:                                               ; preds = %40
  store i32 -12, ptr %2, align 4
  store i32 1, ptr %11, align 4
  br label %234

46:                                               ; preds = %40
  br label %216

47:                                               ; preds = %35
  call void @llvm.lifetime.start.p0(i64 4, ptr %12) #10
  %48 = load ptr, ptr %6, align 8, !tbaa !24
  %49 = load ptr, ptr %6, align 8, !tbaa !24
  %50 = getelementptr inbounds nuw %struct.AVFilterLink, ptr %49, i32 0, i32 6
  %51 = load i32, ptr %50, align 8, !tbaa !48
  %52 = load ptr, ptr %6, align 8, !tbaa !24
  %53 = getelementptr inbounds nuw %struct.AVFilterLink, ptr %52, i32 0, i32 7
  %54 = load i32, ptr %53, align 4, !tbaa !47
  %55 = call ptr @ff_get_video_buffer(ptr noundef %48, i32 noundef %51, i32 noundef %54)
  store ptr %55, ptr %7, align 8, !tbaa !99
  %56 = load ptr, ptr %7, align 8, !tbaa !99
  %57 = icmp ne ptr %56, null
  br i1 %57, label %59, label %58

58:                                               ; preds = %47
  store i32 -12, ptr %2, align 4
  store i32 1, ptr %11, align 4
  br label %213

59:                                               ; preds = %47
  %60 = load ptr, ptr %7, align 8, !tbaa !99
  %61 = load ptr, ptr %8, align 8, !tbaa !99
  %62 = call i32 @av_frame_copy_props(ptr noundef %60, ptr noundef %61)
  store i32 0, ptr %12, align 4, !tbaa !45
  br label %63

63:                                               ; preds = %209, %59
  %64 = load i32, ptr %12, align 4, !tbaa !45
  %65 = load ptr, ptr %5, align 8, !tbaa !22
  %66 = getelementptr inbounds nuw %struct.MidEqualizerContext, ptr %65, i32 0, i32 3
  %67 = load i32, ptr %66, align 8, !tbaa !37
  %68 = icmp slt i32 %64, %67
  br i1 %68, label %69, label %212

69:                                               ; preds = %63
  %70 = load i32, ptr %12, align 4, !tbaa !45
  %71 = shl i32 1, %70
  %72 = load ptr, ptr %5, align 8, !tbaa !22
  %73 = getelementptr inbounds nuw %struct.MidEqualizerContext, ptr %72, i32 0, i32 4
  %74 = load i32, ptr %73, align 4, !tbaa !100
  %75 = and i32 %71, %74
  %76 = icmp ne i32 %75, 0
  br i1 %76, label %123, label %77

77:                                               ; preds = %69
  %78 = load ptr, ptr %7, align 8, !tbaa !99
  %79 = getelementptr inbounds nuw %struct.AVFrame, ptr %78, i32 0, i32 0
  %80 = load i32, ptr %12, align 4, !tbaa !45
  %81 = sext i32 %80 to i64
  %82 = getelementptr inbounds [8 x ptr], ptr %79, i64 0, i64 %81
  %83 = load ptr, ptr %82, align 8, !tbaa !56
  %84 = load ptr, ptr %7, align 8, !tbaa !99
  %85 = getelementptr inbounds nuw %struct.AVFrame, ptr %84, i32 0, i32 1
  %86 = load i32, ptr %12, align 4, !tbaa !45
  %87 = sext i32 %86 to i64
  %88 = getelementptr inbounds [8 x i32], ptr %85, i64 0, i64 %87
  %89 = load i32, ptr %88, align 4, !tbaa !45
  %90 = load ptr, ptr %8, align 8, !tbaa !99
  %91 = getelementptr inbounds nuw %struct.AVFrame, ptr %90, i32 0, i32 0
  %92 = load i32, ptr %12, align 4, !tbaa !45
  %93 = sext i32 %92 to i64
  %94 = getelementptr inbounds [8 x ptr], ptr %91, i64 0, i64 %93
  %95 = load ptr, ptr %94, align 8, !tbaa !56
  %96 = load ptr, ptr %8, align 8, !tbaa !99
  %97 = getelementptr inbounds nuw %struct.AVFrame, ptr %96, i32 0, i32 1
  %98 = load i32, ptr %12, align 4, !tbaa !45
  %99 = sext i32 %98 to i64
  %100 = getelementptr inbounds [8 x i32], ptr %97, i64 0, i64 %99
  %101 = load i32, ptr %100, align 4, !tbaa !45
  %102 = load ptr, ptr %5, align 8, !tbaa !22
  %103 = getelementptr inbounds nuw %struct.MidEqualizerContext, ptr %102, i32 0, i32 1
  %104 = getelementptr inbounds [2 x [4 x i32]], ptr %103, i64 0, i64 0
  %105 = load i32, ptr %12, align 4, !tbaa !45
  %106 = sext i32 %105 to i64
  %107 = getelementptr inbounds [4 x i32], ptr %104, i64 0, i64 %106
  %108 = load i32, ptr %107, align 4, !tbaa !45
  %109 = load ptr, ptr %5, align 8, !tbaa !22
  %110 = getelementptr inbounds nuw %struct.MidEqualizerContext, ptr %109, i32 0, i32 5
  %111 = load i32, ptr %110, align 8, !tbaa !51
  %112 = icmp sgt i32 %111, 256
  %113 = zext i1 %112 to i32
  %114 = add nsw i32 1, %113
  %115 = mul nsw i32 %108, %114
  %116 = load ptr, ptr %5, align 8, !tbaa !22
  %117 = getelementptr inbounds nuw %struct.MidEqualizerContext, ptr %116, i32 0, i32 2
  %118 = getelementptr inbounds [2 x [4 x i32]], ptr %117, i64 0, i64 0
  %119 = load i32, ptr %12, align 4, !tbaa !45
  %120 = sext i32 %119 to i64
  %121 = getelementptr inbounds [4 x i32], ptr %118, i64 0, i64 %120
  %122 = load i32, ptr %121, align 4, !tbaa !45
  call void @av_image_copy_plane(ptr noundef %83, i32 noundef %89, ptr noundef %95, i32 noundef %101, i32 noundef %115, i32 noundef %122)
  br label %209

123:                                              ; preds = %69
  %124 = load ptr, ptr %5, align 8, !tbaa !22
  %125 = getelementptr inbounds nuw %struct.MidEqualizerContext, ptr %124, i32 0, i32 9
  %126 = load ptr, ptr %125, align 8, !tbaa !55
  %127 = load ptr, ptr %8, align 8, !tbaa !99
  %128 = getelementptr inbounds nuw %struct.AVFrame, ptr %127, i32 0, i32 0
  %129 = load i32, ptr %12, align 4, !tbaa !45
  %130 = sext i32 %129 to i64
  %131 = getelementptr inbounds [8 x ptr], ptr %128, i64 0, i64 %130
  %132 = load ptr, ptr %131, align 8, !tbaa !56
  %133 = load ptr, ptr %9, align 8, !tbaa !99
  %134 = getelementptr inbounds nuw %struct.AVFrame, ptr %133, i32 0, i32 0
  %135 = load i32, ptr %12, align 4, !tbaa !45
  %136 = sext i32 %135 to i64
  %137 = getelementptr inbounds [8 x ptr], ptr %134, i64 0, i64 %136
  %138 = load ptr, ptr %137, align 8, !tbaa !56
  %139 = load ptr, ptr %7, align 8, !tbaa !99
  %140 = getelementptr inbounds nuw %struct.AVFrame, ptr %139, i32 0, i32 0
  %141 = load i32, ptr %12, align 4, !tbaa !45
  %142 = sext i32 %141 to i64
  %143 = getelementptr inbounds [8 x ptr], ptr %140, i64 0, i64 %142
  %144 = load ptr, ptr %143, align 8, !tbaa !56
  %145 = load ptr, ptr %8, align 8, !tbaa !99
  %146 = getelementptr inbounds nuw %struct.AVFrame, ptr %145, i32 0, i32 1
  %147 = load i32, ptr %12, align 4, !tbaa !45
  %148 = sext i32 %147 to i64
  %149 = getelementptr inbounds [8 x i32], ptr %146, i64 0, i64 %148
  %150 = load i32, ptr %149, align 4, !tbaa !45
  %151 = sext i32 %150 to i64
  %152 = load ptr, ptr %9, align 8, !tbaa !99
  %153 = getelementptr inbounds nuw %struct.AVFrame, ptr %152, i32 0, i32 1
  %154 = load i32, ptr %12, align 4, !tbaa !45
  %155 = sext i32 %154 to i64
  %156 = getelementptr inbounds [8 x i32], ptr %153, i64 0, i64 %155
  %157 = load i32, ptr %156, align 4, !tbaa !45
  %158 = sext i32 %157 to i64
  %159 = load ptr, ptr %7, align 8, !tbaa !99
  %160 = getelementptr inbounds nuw %struct.AVFrame, ptr %159, i32 0, i32 1
  %161 = load i32, ptr %12, align 4, !tbaa !45
  %162 = sext i32 %161 to i64
  %163 = getelementptr inbounds [8 x i32], ptr %160, i64 0, i64 %162
  %164 = load i32, ptr %163, align 4, !tbaa !45
  %165 = sext i32 %164 to i64
  %166 = load ptr, ptr %5, align 8, !tbaa !22
  %167 = getelementptr inbounds nuw %struct.MidEqualizerContext, ptr %166, i32 0, i32 1
  %168 = getelementptr inbounds [2 x [4 x i32]], ptr %167, i64 0, i64 0
  %169 = load i32, ptr %12, align 4, !tbaa !45
  %170 = sext i32 %169 to i64
  %171 = getelementptr inbounds [4 x i32], ptr %168, i64 0, i64 %170
  %172 = load i32, ptr %171, align 4, !tbaa !45
  %173 = load ptr, ptr %5, align 8, !tbaa !22
  %174 = getelementptr inbounds nuw %struct.MidEqualizerContext, ptr %173, i32 0, i32 2
  %175 = getelementptr inbounds [2 x [4 x i32]], ptr %174, i64 0, i64 0
  %176 = load i32, ptr %12, align 4, !tbaa !45
  %177 = sext i32 %176 to i64
  %178 = getelementptr inbounds [4 x i32], ptr %175, i64 0, i64 %177
  %179 = load i32, ptr %178, align 4, !tbaa !45
  %180 = load ptr, ptr %5, align 8, !tbaa !22
  %181 = getelementptr inbounds nuw %struct.MidEqualizerContext, ptr %180, i32 0, i32 1
  %182 = getelementptr inbounds [2 x [4 x i32]], ptr %181, i64 0, i64 1
  %183 = load i32, ptr %12, align 4, !tbaa !45
  %184 = sext i32 %183 to i64
  %185 = getelementptr inbounds [4 x i32], ptr %182, i64 0, i64 %184
  %186 = load i32, ptr %185, align 4, !tbaa !45
  %187 = load ptr, ptr %5, align 8, !tbaa !22
  %188 = getelementptr inbounds nuw %struct.MidEqualizerContext, ptr %187, i32 0, i32 2
  %189 = getelementptr inbounds [2 x [4 x i32]], ptr %188, i64 0, i64 1
  %190 = load i32, ptr %12, align 4, !tbaa !45
  %191 = sext i32 %190 to i64
  %192 = getelementptr inbounds [4 x i32], ptr %189, i64 0, i64 %191
  %193 = load i32, ptr %192, align 4, !tbaa !45
  %194 = load ptr, ptr %5, align 8, !tbaa !22
  %195 = getelementptr inbounds nuw %struct.MidEqualizerContext, ptr %194, i32 0, i32 6
  %196 = getelementptr inbounds [2 x ptr], ptr %195, i64 0, i64 0
  %197 = load ptr, ptr %196, align 8, !tbaa !52
  %198 = load ptr, ptr %5, align 8, !tbaa !22
  %199 = getelementptr inbounds nuw %struct.MidEqualizerContext, ptr %198, i32 0, i32 6
  %200 = getelementptr inbounds [2 x ptr], ptr %199, i64 0, i64 1
  %201 = load ptr, ptr %200, align 8, !tbaa !52
  %202 = load ptr, ptr %5, align 8, !tbaa !22
  %203 = getelementptr inbounds nuw %struct.MidEqualizerContext, ptr %202, i32 0, i32 7
  %204 = load ptr, ptr %203, align 8, !tbaa !54
  %205 = load ptr, ptr %5, align 8, !tbaa !22
  %206 = getelementptr inbounds nuw %struct.MidEqualizerContext, ptr %205, i32 0, i32 5
  %207 = load i32, ptr %206, align 8, !tbaa !51
  %208 = sext i32 %207 to i64
  call void %126(ptr noundef %132, ptr noundef %138, ptr noundef %144, i64 noundef %151, i64 noundef %158, i64 noundef %165, i32 noundef %172, i32 noundef %179, i32 noundef %186, i32 noundef %193, ptr noundef %197, ptr noundef %201, ptr noundef %204, i64 noundef %208)
  br label %209

209:                                              ; preds = %123, %77
  %210 = load i32, ptr %12, align 4, !tbaa !45
  %211 = add nsw i32 %210, 1
  store i32 %211, ptr %12, align 4, !tbaa !45
  br label %63, !llvm.loop !101

212:                                              ; preds = %63
  store i32 0, ptr %11, align 4
  br label %213

213:                                              ; preds = %212, %58
  call void @llvm.lifetime.end.p0(i64 4, ptr %12) #10
  %214 = load i32, ptr %11, align 4
  switch i32 %214, label %234 [
    i32 0, label %215
  ]

215:                                              ; preds = %213
  br label %216

216:                                              ; preds = %215, %46
  %217 = load ptr, ptr %5, align 8, !tbaa !22
  %218 = getelementptr inbounds nuw %struct.MidEqualizerContext, ptr %217, i32 0, i32 8
  %219 = getelementptr inbounds nuw %struct.FFFrameSync, ptr %218, i32 0, i32 4
  %220 = load i64, ptr %219, align 8, !tbaa !102
  %221 = load ptr, ptr %5, align 8, !tbaa !22
  %222 = getelementptr inbounds nuw %struct.MidEqualizerContext, ptr %221, i32 0, i32 8
  %223 = getelementptr inbounds nuw %struct.FFFrameSync, ptr %222, i32 0, i32 3
  %224 = load ptr, ptr %6, align 8, !tbaa !24
  %225 = getelementptr inbounds nuw %struct.AVFilterLink, ptr %224, i32 0, i32 13
  %226 = load i64, ptr %223, align 4
  %227 = load i64, ptr %225, align 8
  %228 = call i64 @av_rescale_q(i64 noundef %220, i64 %226, i64 %227) #11
  %229 = load ptr, ptr %7, align 8, !tbaa !99
  %230 = getelementptr inbounds nuw %struct.AVFrame, ptr %229, i32 0, i32 9
  store i64 %228, ptr %230, align 8, !tbaa !103
  %231 = load ptr, ptr %6, align 8, !tbaa !24
  %232 = load ptr, ptr %7, align 8, !tbaa !99
  %233 = call i32 @ff_filter_frame(ptr noundef %231, ptr noundef %232)
  store i32 %233, ptr %2, align 4
  store i32 1, ptr %11, align 4
  br label %234

234:                                              ; preds = %216, %213, %45, %33
  call void @llvm.lifetime.end.p0(i64 4, ptr %10) #10
  call void @llvm.lifetime.end.p0(i64 8, ptr %9) #10
  call void @llvm.lifetime.end.p0(i64 8, ptr %8) #10
  call void @llvm.lifetime.end.p0(i64 8, ptr %7) #10
  call void @llvm.lifetime.end.p0(i64 8, ptr %6) #10
  call void @llvm.lifetime.end.p0(i64 8, ptr %5) #10
  call void @llvm.lifetime.end.p0(i64 8, ptr %4) #10
  %235 = load i32, ptr %2, align 4
  ret i32 %235
}