; Function Attrs: nounwind uwtable
define internal i32 @process_frame(ptr noundef readonly captures(none) %0) #1 {
  %2 = alloca ptr, align 8
  %3 = alloca ptr, align 8
  %4 = getelementptr inbounds nuw i8, ptr %0, i64 8
  %5 = load ptr, ptr %4, align 8, !tbaa !79
  %6 = getelementptr inbounds nuw i8, ptr %0, i64 48
  %7 = load ptr, ptr %6, align 8, !tbaa !80
  %8 = getelementptr inbounds nuw i8, ptr %5, i64 56
  %9 = load ptr, ptr %8, align 8, !tbaa !81
  %10 = load ptr, ptr %9, align 8, !tbaa !69
  call void @llvm.lifetime.start.p0(i64 8, ptr nonnull %2) #7
  call void @llvm.lifetime.start.p0(i64 8, ptr nonnull %3) #7
  %11 = getelementptr inbounds nuw i8, ptr %7, i64 112
  %12 = call i32 @ff_framesync_get_frame(ptr noundef nonnull %11, i32 noundef 0, ptr noundef nonnull %2, i32 noundef 0) #7
  %13 = icmp slt i32 %12, 0
  br i1 %13, label %.critedge, label %14

14:                                               ; preds = %1
  %15 = call i32 @ff_framesync_get_frame(ptr noundef nonnull %11, i32 noundef 1, ptr noundef nonnull %3, i32 noundef 0) #7
  %16 = icmp slt i32 %15, 0
  br i1 %16, label %.critedge, label %17

17:                                               ; preds = %14
  %18 = getelementptr inbounds nuw i8, ptr %5, i64 128
  %19 = load i32, ptr %18, align 8, !tbaa !82
  %.not = icmp eq i32 %19, 0
  br i1 %.not, label %23, label %20

20:                                               ; preds = %17
  %21 = load ptr, ptr %2, align 8, !tbaa !83
  %22 = call ptr @av_frame_clone(ptr noundef %21) #7
  %.not67 = icmp eq ptr %22, null
  br i1 %.not67, label %.critedge, label %.loopexit

23:                                               ; preds = %17
  %24 = getelementptr inbounds nuw i8, ptr %10, i64 40
  %25 = load i32, ptr %24, align 8, !tbaa !41
  %26 = getelementptr inbounds nuw i8, ptr %10, i64 44
  %27 = load i32, ptr %26, align 4, !tbaa !39
  %28 = call ptr @ff_get_video_buffer(ptr noundef %10, i32 noundef %25, i32 noundef %27) #7
  %.not65.not = icmp eq ptr %28, null
  br i1 %.not65.not, label %.critedge, label %29

29:                                               ; preds = %23
  %30 = load ptr, ptr %2, align 8, !tbaa !83
  %31 = call i32 @av_frame_copy_props(ptr noundef nonnull %28, ptr noundef %30) #7
  %32 = getelementptr inbounds nuw i8, ptr %7, i64 72
  %33 = load i32, ptr %32, align 8, !tbaa !30
  %34 = icmp sgt i32 %33, 0
  br i1 %34, label %.lr.ph, label %.loopexit

.lr.ph:                                           ; preds = %29
  %35 = getelementptr inbounds nuw i8, ptr %7, i64 76
  %36 = getelementptr inbounds nuw i8, ptr %7, i64 208
  %37 = getelementptr inbounds nuw i8, ptr %28, i64 64
  %38 = getelementptr inbounds nuw i8, ptr %7, i64 8
  %39 = getelementptr inbounds nuw i8, ptr %7, i64 40
  %40 = getelementptr inbounds nuw i8, ptr %7, i64 24
  %41 = getelementptr inbounds nuw i8, ptr %7, i64 56
  %42 = getelementptr inbounds nuw i8, ptr %7, i64 88
  %43 = getelementptr inbounds nuw i8, ptr %7, i64 96
  %44 = getelementptr inbounds nuw i8, ptr %7, i64 104
  %45 = getelementptr inbounds nuw i8, ptr %7, i64 80
  br label %46

46:                                               ; preds = %.lr.ph, %104
  %indvars.iv = phi i64 [ 0, %.lr.ph ], [ %indvars.iv.next, %104 ]
  %47 = trunc nuw nsw i64 %indvars.iv to i32
  %48 = shl nuw i32 1, %47
  %49 = load i32, ptr %35, align 4, !tbaa !84
  %50 = and i32 %49, %48
  %.not66 = icmp eq i32 %50, 0
  br i1 %.not66, label %51, label %70

51:                                               ; preds = %46
  %52 = getelementptr inbounds nuw [8 x ptr], ptr %28, i64 0, i64 %indvars.iv
  %53 = load ptr, ptr %52, align 8, !tbaa !85
  %54 = getelementptr inbounds nuw [8 x i32], ptr %37, i64 0, i64 %indvars.iv
  %55 = load i32, ptr %54, align 4, !tbaa !40
  %56 = load ptr, ptr %2, align 8, !tbaa !83
  %57 = getelementptr inbounds nuw [8 x ptr], ptr %56, i64 0, i64 %indvars.iv
  %58 = load ptr, ptr %57, align 8, !tbaa !85
  %59 = getelementptr inbounds nuw i8, ptr %56, i64 64
  %60 = getelementptr inbounds nuw [8 x i32], ptr %59, i64 0, i64 %indvars.iv
  %61 = load i32, ptr %60, align 4, !tbaa !40
  %62 = getelementptr inbounds nuw [4 x i32], ptr %38, i64 0, i64 %indvars.iv
  %63 = load i32, ptr %62, align 4, !tbaa !40
  %64 = load i32, ptr %45, align 8, !tbaa !44
  %65 = icmp sgt i32 %64, 256
  %66 = zext i1 %65 to i32
  %67 = shl i32 %63, %66
  %68 = getelementptr inbounds nuw [4 x i32], ptr %39, i64 0, i64 %indvars.iv
  %69 = load i32, ptr %68, align 4, !tbaa !40
  call void @av_image_copy_plane(ptr noundef %53, i32 noundef %55, ptr noundef %58, i32 noundef %61, i32 noundef %67, i32 noundef %69) #7
  br label %104

70:                                               ; preds = %46
  %71 = load ptr, ptr %36, align 8, !tbaa !48
  %72 = load ptr, ptr %2, align 8, !tbaa !83
  %73 = getelementptr inbounds nuw [8 x ptr], ptr %72, i64 0, i64 %indvars.iv
  %74 = load ptr, ptr %73, align 8, !tbaa !85
  %75 = load ptr, ptr %3, align 8, !tbaa !83
  %76 = getelementptr inbounds nuw [8 x ptr], ptr %75, i64 0, i64 %indvars.iv
  %77 = load ptr, ptr %76, align 8, !tbaa !85
  %78 = getelementptr inbounds nuw [8 x ptr], ptr %28, i64 0, i64 %indvars.iv
  %79 = load ptr, ptr %78, align 8, !tbaa !85
  %80 = getelementptr inbounds nuw i8, ptr %72, i64 64
  %81 = getelementptr inbounds nuw [8 x i32], ptr %80, i64 0, i64 %indvars.iv
  %82 = load i32, ptr %81, align 4, !tbaa !40
  %83 = sext i32 %82 to i64
  %84 = getelementptr inbounds nuw i8, ptr %75, i64 64
  %85 = getelementptr inbounds nuw [8 x i32], ptr %84, i64 0, i64 %indvars.iv
  %86 = load i32, ptr %85, align 4, !tbaa !40
  %87 = sext i32 %86 to i64
  %88 = getelementptr inbounds nuw [8 x i32], ptr %37, i64 0, i64 %indvars.iv
  %89 = load i32, ptr %88, align 4, !tbaa !40
  %90 = sext i32 %89 to i64
  %91 = getelementptr inbounds nuw [4 x i32], ptr %38, i64 0, i64 %indvars.iv
  %92 = load i32, ptr %91, align 4, !tbaa !40
  %93 = getelementptr inbounds nuw [4 x i32], ptr %39, i64 0, i64 %indvars.iv
  %94 = load i32, ptr %93, align 4, !tbaa !40
  %95 = getelementptr inbounds nuw [4 x i32], ptr %40, i64 0, i64 %indvars.iv
  %96 = load i32, ptr %95, align 4, !tbaa !40
  %97 = getelementptr inbounds nuw [4 x i32], ptr %41, i64 0, i64 %indvars.iv
  %98 = load i32, ptr %97, align 4, !tbaa !40
  %99 = load ptr, ptr %42, align 8, !tbaa !45
  %100 = load ptr, ptr %43, align 8, !tbaa !45
  %101 = load ptr, ptr %44, align 8, !tbaa !47
  %102 = load i32, ptr %45, align 8, !tbaa !44
  %103 = sext i32 %102 to i64
  call void %71(ptr noundef %74, ptr noundef %77, ptr noundef %79, i64 noundef %83, i64 noundef %87, i64 noundef %90, i32 noundef %92, i32 noundef %94, i32 noundef %96, i32 noundef %98, ptr noundef %99, ptr noundef %100, ptr noundef %101, i64 noundef %103) #7
  br label %104

104:                                              ; preds = %70, %51
  %indvars.iv.next = add nuw nsw i64 %indvars.iv, 1
  %105 = load i32, ptr %32, align 8, !tbaa !30
  %106 = sext i32 %105 to i64
  %107 = icmp slt i64 %indvars.iv.next, %106
  br i1 %107, label %46, label %.loopexit, !llvm.loop !86

.loopexit:                                        ; preds = %104, %29, %20
  %.059 = phi ptr [ %22, %20 ], [ %28, %29 ], [ %28, %104 ]
  %108 = getelementptr inbounds nuw i8, ptr %7, i64 144
  %109 = load i64, ptr %108, align 8, !tbaa !87
  %110 = getelementptr inbounds nuw i8, ptr %7, i64 132
  %111 = getelementptr inbounds nuw i8, ptr %10, i64 96
  %112 = load i64, ptr %110, align 4
  %113 = load i64, ptr %111, align 8
  %114 = call i64 @av_rescale_q(i64 noundef %109, i64 %112, i64 %113) #8
  %115 = getelementptr inbounds nuw i8, ptr %.059, i64 136
  store i64 %114, ptr %115, align 8, !tbaa !88
  %116 = call i32 @ff_filter_frame(ptr noundef %10, ptr noundef nonnull %.059) #7
  br label %.critedge

.critedge:                                        ; preds = %23, %20, %1, %14, %.loopexit
  %.060 = phi i32 [ %116, %.loopexit ], [ %12, %1 ], [ %15, %14 ], [ -12, %20 ], [ -12, %23 ]
  call void @llvm.lifetime.end.p0(i64 8, ptr nonnull %3) #7
  call void @llvm.lifetime.end.p0(i64 8, ptr nonnull %2) #7
  ret i32 %.060
}